target datalayout = "e-m:e-p270:32:32-p271:32:32-p272:64:64-i64:64-i128:128-f80:128-n8:16:32:64-S128"
target triple = "x86_64-pc-linux-gnu"

%struct.stmm_table = type { ptr, ptr, i32, i32, i32, i32, double, ptr, ptr }
%struct.stmm_table_entry = type { ptr, ptr, ptr }

; Function Attrs: nounwind uwtable
define internal i32 @Abc_AbsInt(i32 noundef %0) #0 {
  %2 = alloca i32, align 4
  store i32 %0, ptr %2, align 4
  %3 = load i32, ptr %2, align 4
  %4 = icmp slt i32 %3, 0
  br i1 %4, label %5, label %8

5:                                                ; preds = %1
  %6 = load i32, ptr %2, align 4
  %7 = sub nsw i32 0, %6
  br label %10

8:                                                ; preds = %1
  %9 = load i32, ptr %2, align 4
  br label %10

10:                                               ; preds = %8, %5
  %11 = phi i32 [ %7, %5 ], [ %9, %8 ]
  ret i32 %11
}

; Function Attrs: nounwind uwtable
define i32 @stmm_delete(ptr noundef %0, ptr noundef %1, ptr noundef %2) #0 {
  %4 = alloca i32, align 4
  %5 = alloca ptr, align 8
  %6 = alloca ptr, align 8
  %7 = alloca ptr, align 8
  %8 = alloca i32, align 4
  %9 = alloca ptr, align 8
  %10 = alloca ptr, align 8
  %11 = alloca ptr, align 8
  store ptr %0, ptr %5, align 8
  store ptr %1, ptr %6, align 8
  store ptr %2, ptr %7, align 8
  %12 = load ptr, ptr %6, align 8
  %13 = load ptr, ptr %12, align 8
  store ptr %13, ptr %9, align 8
  %14 = load ptr, ptr %5, align 8
  %15 = getelementptr inbounds %struct.stmm_table, ptr %14, i32 0, i32 1
  %16 = load ptr, ptr %15, align 8
  %17 = icmp eq ptr %16, @stmm_ptrhash
  br i1 %17, label %18, label %28

18:                                               ; preds = %3
  %19 = load ptr, ptr %9, align 8
  %20 = ptrtoint ptr %19 to i64
  %21 = lshr i64 %20, 2
  %22 = load ptr, ptr %5, align 8
  %23 = getelementptr inbounds %struct.stmm_table, ptr %22, i32 0, i32 2
  %24 = load i32, ptr %23, align 8
  %25 = sext i32 %24 to i64
  %26 = urem i64 %21, %25
  %27 = trunc i64 %26 to i32
  br label %53

28:                                               ; preds = %3
  %29 = load ptr, ptr %5, align 8
  %30 = getelementptr inbounds %struct.stmm_table, ptr %29, i32 0, i32 1
  %31 = load ptr, ptr %30, align 8
  %32 = icmp eq ptr %31, @stmm_numhash
  br i1 %32, label %33, label %42

33:                                               ; preds = %28
  %34 = load ptr, ptr %9, align 8
  %35 = ptrtoint ptr %34 to i64
  %36 = trunc i64 %35 to i32
  %37 = call i32 @Abc_AbsInt(i32 noundef %36)
  %38 = load ptr, ptr %5, align 8
  %39 = getelementptr inbounds %struct.stmm_table, ptr %38, i32 0, i32 2
  %40 = load i32, ptr %39, align 8
  %41 = srem i32 %37, %40
  br label %51

42:                                               ; preds = %28
  %43 = load ptr, ptr %5, align 8
  %44 = getelementptr inbounds %struct.stmm_table, ptr %43, i32 0, i32 1
  %45 = load ptr, ptr %44, align 8
  %46 = load ptr, ptr %9, align 8
  %47 = load ptr, ptr %5, align 8
  %48 = getelementptr inbounds %struct.stmm_table, ptr %47, i32 0, i32 2
  %49 = load i32, ptr %48, align 8
  %50 = call i32 %45(ptr noundef %46, i32 noundef %49)
  br label %51

51:                                               ; preds = %42, %33
  %52 = phi i32 [ %41, %33 ], [ %50, %42 ]
  br label %53

53:                                               ; preds = %51, %18
  %54 = phi i32 [ %27, %18 ], [ %52, %51 ]
  store i32 %54, ptr %8, align 4
  %55 = load ptr, ptr %5, align 8
  %56 = getelementptr inbounds %struct.stmm_table, ptr %55, i32 0, i32 7
  %57 = load ptr, ptr %56, align 8
  %58 = load i32, ptr %8, align 4
  %59 = sext i32 %58 to i64
  %60 = getelementptr inbounds ptr, ptr %57, i64 %59
  store ptr %60, ptr %11, align 8
  %61 = load ptr, ptr %11, align 8
  %62 = load ptr, ptr %61, align 8
  store ptr %62, ptr %10, align 8
  br label %63

63:                                               ; preds = %102, %53
  %64 = load ptr, ptr %10, align 8
  %65 = icmp ne ptr %64, null
  br i1 %65, label %66, label %100

66:                                               ; preds = %63
  %67 = load ptr, ptr %5, align 8
  %68 = getelementptr inbounds %struct.stmm_table, ptr %67, i32 0, i32 0
  %69 = load ptr, ptr %68, align 8
  %70 = icmp eq ptr %69, @stmm_numcmp
  br i1 %70, label %76, label %71

71:                                               ; preds = %66
  %72 = load ptr, ptr %5, align 8
  %73 = getelementptr inbounds %struct.stmm_table, ptr %72, i32 0, i32 0
  %74 = load ptr, ptr %73, align 8
  %75 = icmp eq ptr %74, @stmm_ptrcmp
  br i1 %75, label %76, label %85

76:                                               ; preds = %71, %66
  %77 = load ptr, ptr %9, align 8
  %78 = load ptr, ptr %10, align 8
  %79 = getelementptr inbounds %struct.stmm_table_entry, ptr %78, i32 0, i32 0
  %80 = load ptr, ptr %79, align 8
  %81 = icmp ne ptr %77, %80
  %82 = zext i1 %81 to i32
  %83 = icmp eq i32 %82, 0
  %84 = zext i1 %83 to i32
  br label %96

85:                                               ; preds = %71
  %86 = load ptr, ptr %5, align 8
  %87 = getelementptr inbounds %struct.stmm_table, ptr %86, i32 0, i32 0
  %88 = load ptr, ptr %87, align 8
  %89 = load ptr, ptr %9, align 8
  %90 = load ptr, ptr %10, align 8
  %91 = getelementptr inbounds %struct.stmm_table_entry, ptr %90, i32 0, i32 0
  %92 = load ptr, ptr %91, align 8
  %93 = call i32 %88(ptr noundef %89, ptr noundef %92)
  %94 = icmp eq i32 %93, 0
  %95 = zext i1 %94 to i32
  br label %96

96:                                               ; preds = %85, %76
  %97 = phi i32 [ %84, %76 ], [ %95, %85 ]
  %98 = icmp ne i32 %97, 0
  %99 = xor i1 %98, true
  br label %100

100:                                              ; preds = %96, %63
  %101 = phi i1 [ false, %63 ], [ %99, %96 ]
  br i1 %101, label %102, label %107

102:                                              ; preds = %100
  %103 = load ptr, ptr %10, align 8
  %104 = getelementptr inbounds %struct.stmm_table_entry, ptr %103, i32 0, i32 2
  store ptr %104, ptr %11, align 8
  %105 = load ptr, ptr %11, align 8
  %106 = load ptr, ptr %105, align 8
  store ptr %106, ptr %10, align 8
  br label %63, !llvm.loop !17

107:                                              ; preds = %100
  %108 = load ptr, ptr %10, align 8
  %109 = icmp ne ptr %108, null
  br i1 %109, label %110, label %136

110:                                              ; preds = %107
  %111 = load ptr, ptr %5, align 8
  %112 = getelementptr inbounds %struct.stmm_table, ptr %111, i32 0, i32 5
  %113 = load i32, ptr %112, align 4
  %114 = icmp ne i32 %113, 0
  br i1 %114, label %115, label %136

115:                                              ; preds = %110
  %116 = load ptr, ptr %10, align 8
  %117 = getelementptr inbounds %struct.stmm_table_entry, ptr %116, i32 0, i32 2
  %118 = load ptr, ptr %117, align 8
  %119 = load ptr, ptr %11, align 8
  store ptr %118, ptr %119, align 8
  %120 = load ptr, ptr %5, align 8
  %121 = getelementptr inbounds %struct.stmm_table, ptr %120, i32 0, i32 7
  %122 = load ptr, ptr %121, align 8
  %123 = load i32, ptr %8, align 4
  %124 = sext i32 %123 to i64
  %125 = getelementptr inbounds ptr, ptr %122, i64 %124
  %126 = load ptr, ptr %125, align 8
  %127 = load ptr, ptr %10, align 8
  %128 = getelementptr inbounds %struct.stmm_table_entry, ptr %127, i32 0, i32 2
  store ptr %126, ptr %128, align 8
  %129 = load ptr, ptr %10, align 8
  %130 = load ptr, ptr %5, align 8
  %131 = getelementptr inbounds %struct.stmm_table, ptr %130, i32 0, i32 7
  %132 = load ptr, ptr %131, align 8
  %133 = load i32, ptr %8, align 4
  %134 = sext i32 %133 to i64
  %135 = getelementptr inbounds ptr, ptr %132, i64 %134
  store ptr %129, ptr %135, align 8
  br label %136

136:                                              ; preds = %115, %110, %107
  %137 = load ptr, ptr %10, align 8
  %138 = icmp eq ptr %137, null
  br i1 %138, label %139, label %140

139:                                              ; preds = %136
  store i32 0, ptr %4, align 4
  br label %165

140:                                              ; preds = %136
  %141 = load ptr, ptr %10, align 8
  %142 = getelementptr inbounds %struct.stmm_table_entry, ptr %141, i32 0, i32 2
  %143 = load ptr, ptr %142, align 8
  %144 = load ptr, ptr %11, align 8
  store ptr %143, ptr %144, align 8
  %145 = load ptr, ptr %7, align 8
  %146 = icmp ne ptr %145, null
  br i1 %146, label %147, label %152

147:                                              ; preds = %140
  %148 = load ptr, ptr %10, align 8
  %149 = getelementptr inbounds %struct.stmm_table_entry, ptr %148, i32 0, i32 1
  %150 = load ptr, ptr %149, align 8
  %151 = load ptr, ptr %7, align 8
  store ptr %150, ptr %151, align 8
  br label %152

152:                                              ; preds = %147, %140
  %153 = load ptr, ptr %10, align 8
  %154 = getelementptr inbounds %struct.stmm_table_entry, ptr %153, i32 0, i32 0
  %155 = load ptr, ptr %154, align 8
  %156 = load ptr, ptr %6, align 8
  store ptr %155, ptr %156, align 8
  %157 = load ptr, ptr %5, align 8
  %158 = getelementptr inbounds %struct.stmm_table, ptr %157, i32 0, i32 8
  %159 = load ptr, ptr %158, align 8
  %160 = load ptr, ptr %10, align 8
  call void @Extra_MmFixedEntryRecycle(ptr noundef %159, ptr noundef %160)
  %161 = load ptr, ptr %5, align 8
  %162 = getelementptr inbounds %struct.stmm_table, ptr %161, i32 0, i32 3
  %163 = load i32, ptr %162, align 4
  %164 = add nsw i32 %163, -1
  store i32 %164, ptr %162, align 4
  store i32 1, ptr %4, align 4
  br label %165

165:                                              ; preds = %152, %139
  %166 = load i32, ptr %4, align 4
  ret i32 %166
}