; Function Attrs: nounwind uwtable
define range(i32 0, 2) i32 @stmm_delete(ptr noundef captures(none) %0, ptr noundef captures(none) %1, ptr noundef writeonly %2) local_unnamed_addr #0 {
  %4 = load ptr, ptr %1, align 8
  %5 = getelementptr inbounds nuw i8, ptr %0, i64 8
  %6 = load ptr, ptr %5, align 8
  %7 = icmp eq ptr %6, @stmm_ptrhash
  br i1 %7, label %8, label %16

8:                                                ; preds = %3
  %9 = ptrtoint ptr %4 to i64
  %10 = lshr i64 %9, 2
  %11 = getelementptr inbounds nuw i8, ptr %0, i64 16
  %12 = load i32, ptr %11, align 8
  %13 = sext i32 %12 to i64
  %14 = urem i64 %10, %13
  %15 = trunc i64 %14 to i32
  br label %29

16:                                               ; preds = %3
  %17 = icmp eq ptr %6, @stmm_numhash
  br i1 %17, label %18, label %25

18:                                               ; preds = %16
  %19 = ptrtoint ptr %4 to i64
  %20 = trunc i64 %19 to i32
  %21 = tail call range(i32 0, -2147483648) i32 @llvm.abs.i32(i32 %20, i1 true)
  %22 = getelementptr inbounds nuw i8, ptr %0, i64 16
  %23 = load i32, ptr %22, align 8
  %24 = srem i32 %21, %23
  br label %29

25:                                               ; preds = %16
  %26 = getelementptr inbounds nuw i8, ptr %0, i64 16
  %27 = load i32, ptr %26, align 8
  %28 = tail call i32 %6(ptr noundef %4, i32 noundef %27) #13
  br label %29

29:                                               ; preds = %18, %25, %8
  %30 = phi i32 [ %15, %8 ], [ %24, %18 ], [ %28, %25 ]
  %31 = getelementptr inbounds nuw i8, ptr %0, i64 40
  %32 = load ptr, ptr %31, align 8
  %33 = sext i32 %30 to i64
  %34 = getelementptr inbounds ptr, ptr %32, i64 %33
  %.04455 = load ptr, ptr %34, align 8
  %.not56 = icmp eq ptr %.04455, null
  br i1 %.not56, label %.critedge52, label %.lr.ph

.lr.ph:                                           ; preds = %29, %43
  %.04458 = phi ptr [ %.044, %43 ], [ %.04455, %29 ]
  %.057 = phi ptr [ %44, %43 ], [ %34, %29 ]
  %35 = load ptr, ptr %0, align 8
  %36 = icmp eq ptr %35, @stmm_numcmp
  %37 = icmp eq ptr %35, @stmm_ptrcmp
  %or.cond = or i1 %36, %37
  %38 = load ptr, ptr %.04458, align 8
  br i1 %or.cond, label %39, label %40

39:                                               ; preds = %.lr.ph
  %.not49 = icmp eq ptr %4, %38
  br i1 %.not49, label %.critedge, label %43

40:                                               ; preds = %.lr.ph
  %41 = tail call i32 %35(ptr noundef %4, ptr noundef %38) #13
  %42 = icmp eq i32 %41, 0
  br i1 %42, label %.critedge, label %43

43:                                               ; preds = %39, %40
  %44 = getelementptr inbounds nuw i8, ptr %.04458, i64 16
  %.044 = load ptr, ptr %44, align 8
  %.not = icmp eq ptr %.044, null
  br i1 %.not, label %.critedge52, label %.lr.ph, !llvm.loop !16

.critedge:                                        ; preds = %40, %39
  %45 = getelementptr inbounds nuw i8, ptr %0, i64 28
  %46 = load i32, ptr %45, align 4
  %.not50 = icmp eq i32 %46, 0
  br i1 %.not50, label %55, label %47

47:                                               ; preds = %.critedge
  %48 = getelementptr inbounds nuw i8, ptr %.04458, i64 16
  %49 = load ptr, ptr %48, align 8
  store ptr %49, ptr %.057, align 8
  %50 = load ptr, ptr %31, align 8
  %51 = getelementptr inbounds ptr, ptr %50, i64 %33
  %52 = load ptr, ptr %51, align 8
  store ptr %52, ptr %48, align 8
  %53 = load ptr, ptr %31, align 8
  %54 = getelementptr inbounds ptr, ptr %53, i64 %33
  store ptr %.04458, ptr %54, align 8
  br label %55

55:                                               ; preds = %47, %.critedge
  %56 = getelementptr inbounds nuw i8, ptr %.04458, i64 16
  %57 = load ptr, ptr %56, align 8
  store ptr %57, ptr %.057, align 8
  %.not51 = icmp eq ptr %2, null
  br i1 %.not51, label %61, label %58

58:                                               ; preds = %55
  %59 = getelementptr inbounds nuw i8, ptr %.04458, i64 8
  %60 = load ptr, ptr %59, align 8
  store ptr %60, ptr %2, align 8
  br label %61

61:                                               ; preds = %58, %55
  %62 = load ptr, ptr %.04458, align 8
  store ptr %62, ptr %1, align 8
  %63 = getelementptr inbounds nuw i8, ptr %0, i64 48
  %64 = load ptr, ptr %63, align 8
  tail call void @Extra_MmFixedEntryRecycle(ptr noundef %64, ptr noundef nonnull %.04458) #13
  %65 = getelementptr inbounds nuw i8, ptr %0, i64 20
  %66 = load i32, ptr %65, align 4
  %67 = add nsw i32 %66, -1
  store i32 %67, ptr %65, align 4
  br label %.critedge52

.critedge52:                                      ; preds = %43, %29, %61
  %.045 = phi i32 [ 1, %61 ], [ 0, %29 ], [ 0, %43 ]
  ret i32 %.045
}